Certificate:
    Data:
        Version: 3 (0x2)
        Serial Number:
            b1:ea:af:5e:e4:99:c1:45:68:c0:fc:d2:78:da:19:6a
        Signature Algorithm: sha256WithRSAEncryption
        Issuer: CN=Easy-RSA CA
        Validity
            Not Before: Mar 17 00:48:06 2025 GMT
            Not After : Jun 20 00:48:06 2027 GMT
        Subject: CN=client1.domain.tld
        Subject Public Key Info:
            Public Key Algorithm: rsaEncryption
                Public-Key: (2048 bit)
                Modulus:
                    00:cf:da:52:73:e5:d7:b6:ed:6b:77:27:68:a1:34:
                    41:68:20:20:ed:b1:f5:54:19:01:82:4f:b6:11:df:
                    26:56:37:09:a3:6d:01:2a:2d:fd:bd:24:5e:21:53:
                    2c:9d:46:5a:0e:d1:b9:1b:7f:ce:37:ff:55:f6:5c:
                    3b:a0:73:0b:e0:59:5d:e6:90:15:ef:97:f4:f7:86:
                    67:d3:ba:15:77:8b:37:1e:e1:bb:64:40:61:bf:5b:
                    42:68:8a:af:6b:96:e1:bf:85:d9:13:90:ed:66:c0:
                    86:33:65:b4:e6:ca:d7:27:23:5a:0a:75:49:ed:1d:
                    2d:d9:2e:72:50:83:5e:8b:76:06:b9:a4:4e:ae:7e:
                    cb:76:dc:74:33:8b:31:76:7f:18:06:81:ed:e1:45:
                    ad:e4:bc:7c:d9:3d:05:fd:9d:77:e3:f6:25:84:bb:
                    37:d6:f6:3c:66:2e:4f:5f:07:ab:ed:b1:96:fb:a8:
                    10:4d:98:51:05:a9:8f:58:56:bf:b2:24:58:b3:b7:
                    b8:dd:0f:6d:fe:b3:ac:50:b7:32:78:ca:46:e4:dd:
                    53:c2:86:a4:d8:30:8f:e5:e7:9c:57:cc:af:17:aa:
                    e8:3e:f1:47:5a:6c:17:b9:48:18:64:15:82:28:7e:
                    a5:3c:5d:27:26:77:37:19:33:f5:8d:7b:58:e0:6a:
                    38:8d
                Exponent: 65537 (0x10001)
        X509v3 extensions:
            X509v3 Basic Constraints: 
                CA:FALSE
            X509v3 Subject Key Identifier: 
                01:78:2F:B3:EC:61:A7:E9:15:9F:9A:54:31:45:28:5D:92:8A:EC:98
            X509v3 Authority Key Identifier: 
                keyid:EA:6E:33:1A:2A:A5:36:E0:50:F0:82:D5:64:FA:66:49:F4:AC:A2:37
                DirName:/CN=Easy-RSA CA
                serial:07:1C:CA:63:20:A8:AE:F4:C9:24:BC:AB:C5:DA:47:1B:26:57:DC:4E
            X509v3 Extended Key Usage: 
                TLS Web Client Authentication
            X509v3 Key Usage: 
                Digital Signature
    Signature Algorithm: sha256WithRSAEncryption
    Signature Value:
        07:6c:60:f5:ce:a4:25:16:1b:97:96:69:e9:41:60:59:3e:b1:
        46:5b:65:54:ca:da:c1:8f:6f:be:1f:1a:68:83:36:27:44:81:
        c9:bb:79:45:cd:99:9e:c3:0e:4f:e7:1b:84:bd:8e:81:56:be:
        0d:9a:83:60:4c:f3:3b:2f:1f:4f:91:d5:b9:80:96:6a:0b:3c:
        6a:07:17:e3:62:25:c0:65:96:c2:01:68:eb:5d:d2:45:f2:f2:
        cf:ce:d1:97:52:65:ad:66:5e:28:c7:22:a4:91:15:5d:74:c7:
        03:20:de:03:22:29:f8:76:0e:14:d4:ee:fe:7e:10:27:88:18:
        65:cf:11:90:e4:2d:ef:de:d0:ec:ee:04:0c:ae:ac:54:68:f8:
        97:86:5e:e1:8a:a4:02:94:22:ad:72:82:09:18:de:0e:46:0e:
        7c:7f:4a:08:bd:ec:a9:a8:df:dc:f6:69:e3:0f:dc:8f:18:bd:
        df:80:2a:ee:67:4e:87:d2:33:b9:4a:e5:e7:8c:da:41:f3:5e:
        fa:d7:6e:e4:e0:2d:50:26:8b:0c:a6:12:a7:6e:5a:59:11:0e:
        04:c6:9e:2b:e3:56:8a:b9:cb:44:50:da:6f:6b:43:84:83:57:
        0d:2a:3a:3b:b2:a1:0c:4d:b8:8b:92:45:df:ed:9d:92:81:61:
        f4:5d:3e:e8
-----BEGIN CERTIFICATE-----
MIIDYTCCAkmgAwIBAgIRALHqr17kmcFFaMD80njaGWowDQYJKoZIhvcNAQELBQAw
FjEUMBIGA1UEAwwLRWFzeS1SU0EgQ0EwHhcNMjUwMzE3MDA0ODA2WhcNMjcwNjIw
MDA0ODA2WjAdMRswGQYDVQQDDBJjbGllbnQxLmRvbWFpbi50bGQwggEiMA0GCSqG
SIb3DQEBAQUAA4IBDwAwggEKAoIBAQDP2lJz5de27Wt3J2ihNEFoICDtsfVUGQGC
T7YR3yZWNwmjbQEqLf29JF4hUyydRloO0bkbf843/1X2XDugcwvgWV3mkBXvl/T3
hmfTuhV3izce4btkQGG/W0Joiq9rluG/hdkTkO1mwIYzZbTmytcnI1oKdUntHS3Z
LnJQg16Ldga5pE6ufst23HQzizF2fxgGge3hRa3kvHzZPQX9nXfj9iWEuzfW9jxm
Lk9fB6vtsZb7qBBNmFEFqY9YVr+yJFizt7jdD23+s6xQtzJ4ykbk3VPChqTYMI/l
55xXzK8Xqug+8UdabBe5SBhkFYIofqU8XScmdzcZM/WNe1jgajiNAgMBAAGjgaIw
gZ8wCQYDVR0TBAIwADAdBgNVHQ4EFgQUAXgvs+xhp+kVn5pUMUUoXZKK7JgwUQYD
VR0jBEowSIAU6m4zGiqlNuBQ8ILVZPpmSfSsojehGqQYMBYxFDASBgNVBAMMC0Vh
c3ktUlNBIENBghQHHMpjIKiu9MkkvKvF2kcbJlfcTjATBgNVHSUEDDAKBggrBgEF
BQcDAjALBgNVHQ8EBAMCB4AwDQYJKoZIhvcNAQELBQADggEBAAdsYPXOpCUWG5eW
aelBYFk+sUZbZVTK2sGPb74fGmiDNidEgcm7eUXNmZ7DDk/nG4S9joFWvg2ag2BM
8zsvH0+R1bmAlmoLPGoHF+NiJcBllsIBaOtd0kXy8s/O0ZdSZa1mXijHIqSRFV10
xwMg3gMiKfh2DhTU7v5+ECeIGGXPEZDkLe/e0OzuBAyurFRo+JeGXuGKpAKUIq1y
ggkY3g5GDnx/Sgi97Kmo39z2aeMP3I8Yvd+AKu5nTofSM7lK5eeM2kHzXvrXbuTg
LVAmiwymEqduWlkRDgTGnivjVoq5y0RQ2m9rQ4SDVw0qOjuyoQxNuIuSRd/tnZKB
YfRdPug=
-----END CERTIFICATE-----
