Certificate:
    Data:
        Version: 3 (0x2)
        Serial Number:
            fd:32:5e:ef:46:b1:01:8e:27:da:42:ee:76:f5:10:dc
        Signature Algorithm: sha256WithRSAEncryption
        Issuer: CN=Easy-RSA CA
        Validity
            Not Before: Mar 17 00:46:47 2025 GMT
            Not After : Jun 20 00:46:47 2027 GMT
        Subject: CN=server.clouds.com
        Subject Public Key Info:
            Public Key Algorithm: rsaEncryption
                Public-Key: (2048 bit)
                Modulus:
                    00:c5:cf:7f:af:ea:da:e2:04:40:17:25:6e:a5:82:
                    82:af:04:a3:ba:c9:23:63:2e:67:4c:61:c7:02:2c:
                    83:4a:9c:d0:db:52:5e:2b:4a:83:32:74:6c:75:52:
                    75:ca:18:7b:de:40:b0:a2:40:d5:87:4d:f5:bc:97:
                    b4:ea:79:5b:5f:27:4b:10:26:55:46:0e:06:5d:7e:
                    4c:ef:ef:b0:37:50:d5:07:3c:b5:70:97:be:d6:4c:
                    27:43:54:b9:16:9b:a0:95:39:83:cd:69:a3:d3:69:
                    68:bb:19:09:97:dd:47:45:b9:d3:92:03:14:04:72:
                    6a:c9:05:e8:a3:d9:06:98:66:cd:f2:a1:45:bf:d3:
                    0c:0e:ad:b0:0a:f6:a8:f4:40:7a:90:aa:2b:a6:ad:
                    07:31:67:8f:d6:35:dd:0f:67:57:e0:dc:fe:7b:e4:
                    28:e0:03:d3:dd:e7:4f:1a:74:aa:f7:74:1f:14:59:
                    f2:03:f6:2f:be:1f:1c:91:aa:b0:ea:a2:ac:60:21:
                    6b:29:be:4d:b1:3d:84:7f:2e:d7:e9:d1:fa:57:0b:
                    e1:63:37:ad:45:0d:48:25:6a:ca:54:aa:bf:f1:90:
                    8e:d3:93:5f:31:f5:96:c5:0a:76:4b:dc:60:0f:79:
                    cd:93:b3:c4:66:cc:dd:9c:00:0f:9c:5c:0f:62:57:
                    79:43
                Exponent: 65537 (0x10001)
        X509v3 extensions:
            X509v3 Basic Constraints: 
                CA:FALSE
            X509v3 Subject Key Identifier: 
                94:D4:89:99:BE:85:90:B2:E2:70:56:AE:99:09:21:21:75:95:E2:D3
            X509v3 Authority Key Identifier: 
                keyid:EA:6E:33:1A:2A:A5:36:E0:50:F0:82:D5:64:FA:66:49:F4:AC:A2:37
                DirName:/CN=Easy-RSA CA
                serial:07:1C:CA:63:20:A8:AE:F4:C9:24:BC:AB:C5:DA:47:1B:26:57:DC:4E
            X509v3 Extended Key Usage: 
                TLS Web Server Authentication
            X509v3 Key Usage: 
                Digital Signature, Key Encipherment
    Signature Algorithm: sha256WithRSAEncryption
    Signature Value:
        1a:44:4c:64:98:92:df:f0:ca:64:d9:a1:98:99:2c:8e:27:b5:
        60:5d:5b:47:a1:ce:8b:8b:c5:94:f3:a9:ed:e0:f0:c7:9e:8f:
        3f:2b:ba:a3:c4:9b:14:3f:96:d5:2f:58:8b:5f:8b:60:dc:f1:
        57:da:85:e3:bf:0b:32:fb:49:81:f2:b5:be:06:43:9d:d7:35:
        eb:e8:99:f0:3f:d0:b2:40:5d:13:24:f5:5c:c7:f8:85:d7:c2:
        90:8f:33:a6:80:4b:98:56:80:66:40:d2:07:39:16:96:03:44:
        14:b9:12:f8:e8:43:2d:1c:4a:2c:da:2f:cb:cd:0a:a9:74:3e:
        29:87:2b:b9:1d:0a:db:59:ab:65:ad:98:66:dc:6b:a1:f8:84:
        62:37:56:a4:b3:ec:e0:7d:df:68:9c:49:63:25:0f:41:0a:cc:
        be:06:c4:73:5c:a9:1b:11:9c:1e:c6:ff:d3:09:f4:3d:e5:d3:
        46:3b:33:30:33:c2:31:f6:8d:ec:57:a4:5d:42:12:9e:13:fa:
        aa:93:ec:b8:4a:62:10:ef:bb:67:a8:cc:71:fe:72:d5:c2:03:
        b2:bb:2e:41:18:5a:a1:19:3d:ae:8d:e1:c0:09:b1:3e:04:54:
        b4:fa:95:f0:5d:28:9f:91:5a:ea:17:b8:15:da:71:4d:2d:7a:
        4c:d5:f3:ac
-----BEGIN CERTIFICATE-----
MIIDYDCCAkigAwIBAgIRAP0yXu9GsQGOJ9pC7nb1ENwwDQYJKoZIhvcNAQELBQAw
FjEUMBIGA1UEAwwLRWFzeS1SU0EgQ0EwHhcNMjUwMzE3MDA0NjQ3WhcNMjcwNjIw
MDA0NjQ3WjAcMRowGAYDVQQDDBFzZXJ2ZXIuY2xvdWRzLmNvbTCCASIwDQYJKoZI
hvcNAQEBBQADggEPADCCAQoCggEBAMXPf6/q2uIEQBclbqWCgq8Eo7rJI2MuZ0xh
xwIsg0qc0NtSXitKgzJ0bHVSdcoYe95AsKJA1YdN9byXtOp5W18nSxAmVUYOBl1+
TO/vsDdQ1Qc8tXCXvtZMJ0NUuRaboJU5g81po9NpaLsZCZfdR0W505IDFARyaskF
6KPZBphmzfKhRb/TDA6tsAr2qPRAepCqK6atBzFnj9Y13Q9nV+Dc/nvkKOAD093n
Txp0qvd0HxRZ8gP2L74fHJGqsOqirGAhaym+TbE9hH8u1+nR+lcL4WM3rUUNSCVq
ylSqv/GQjtOTXzH1lsUKdkvcYA95zZOzxGbM3ZwAD5xcD2JXeUMCAwEAAaOBojCB
nzAJBgNVHRMEAjAAMB0GA1UdDgQWBBSU1ImZvoWQsuJwVq6ZCSEhdZXi0zBRBgNV
HSMESjBIgBTqbjMaKqU24FDwgtVk+mZJ9KyiN6EapBgwFjEUMBIGA1UEAwwLRWFz
eS1SU0EgQ0GCFAccymMgqK70ySS8q8XaRxsmV9xOMBMGA1UdJQQMMAoGCCsGAQUF
BwMBMAsGA1UdDwQEAwIFoDANBgkqhkiG9w0BAQsFAAOCAQEAGkRMZJiS3/DKZNmh
mJksjie1YF1bR6HOi4vFlPOp7eDwx56PPyu6o8SbFD+W1S9Yi1+LYNzxV9qF478L
MvtJgfK1vgZDndc16+iZ8D/QskBdEyT1XMf4hdfCkI8zpoBLmFaAZkDSBzkWlgNE
FLkS+OhDLRxKLNovy80KqXQ+KYcruR0K21mrZa2YZtxrofiEYjdWpLPs4H3faJxJ
YyUPQQrMvgbEc1ypGxGcHsb/0wn0PeXTRjszMDPCMfaN7FekXUISnhP6qpPsuEpi
EO+7Z6jMcf5y1cIDsrsuQRhaoRk9ro3hwAmxPgRUtPqV8F0on5Fa6he4FdpxTS16
TNXzrA==
-----END CERTIFICATE-----
